; Function Attrs: mustprogress nounwind uwtable
define dso_local void @_ZN4llvm39BasicBlockSectionsProfileReaderAnalysis3runERNS_8FunctionERNS_15AnalysisManagerIS1_JEEE(ptr dead_on_unwind noalias writable sret(%"class.llvm::BasicBlockSectionsProfileReader") align 8 %0, ptr nocapture noundef nonnull readonly align 8 dereferenceable(8) %1, ptr nocapture noundef nonnull readnone align 8 dereferenceable(136) %2, ptr nocapture noundef nonnull readnone align 8 dereferenceable(72) %3) local_unnamed_addr #0 align 2 {
  %5 = load ptr, ptr %1, align 8
  %6 = getelementptr inbounds i8, ptr %5, i64 904
  %7 = load ptr, ptr %6, align 8
  store ptr %7, ptr %0, align 8
  %8 = getelementptr inbounds nuw i8, ptr %0, i64 8
  tail call void @_ZN4llvm13line_iteratorC1ERKNS_12MemoryBufferEbc(ptr noundef nonnull align 8 dereferenceable(64) %8, ptr noundef nonnull align 8 dereferenceable(24) %7, i1 noundef zeroext true, i8 noundef signext 35) #17
  %9 = getelementptr inbounds nuw i8, ptr %0, i64 72
  %10 = getelementptr inbounds i8, ptr %0, i64 92
  tail call void @llvm.memset.p0.i64(ptr noundef nonnull align 8 dereferenceable(20) %9, i8 0, i64 20, i1 false)
  store i32 160, ptr %10, align 4
  %11 = getelementptr inbounds nuw i8, ptr %0, i64 96
  %12 = getelementptr inbounds i8, ptr %0, i64 116
  tail call void @llvm.memset.p0.i64(ptr noundef nonnull align 8 dereferenceable(20) %11, i8 0, i64 20, i1 false)
  store i32 152, ptr %12, align 4
  %13 = getelementptr inbounds nuw i8, ptr %0, i64 120
  %14 = getelementptr inbounds i8, ptr %0, i64 140
  tail call void @llvm.memset.p0.i64(ptr noundef nonnull align 8 dereferenceable(20) %13, i8 0, i64 20, i1 false)
  store i32 24, ptr %14, align 4
  ret void
}